target datalayout = "e-m:e-p270:32:32-p271:32:32-p272:64:64-i64:64-i128:128-f80:128-n8:16:32:64-S128"
target triple = "x86_64-pc-linux-gnu"

%struct.GCRef = type { i64 }
%struct.jit_State = type { %struct.GCtrace, ptr, ptr, ptr, ptr, ptr, ptr, i32, i32, i32, i8, i8, %struct.IRType1, i8, %struct.FoldState, ptr, i32, i32, i32, i32, i32, i32, i32, [1 x i32], [5 x %union.TValue], [3 x %union.TValue], ptr, i32, i32, i32, i32, ptr, ptr, i32, i32, i8, ptr, i32, i32, i16, [101 x i16], [258 x i32], [15 x i32], [16 x ptr], [64 x %struct.HotPenalty], i32, [16 x %struct.BPropEntry], i32, %struct.ScEvEntry, ptr, i32, i32, i32, ptr, i32, i32, ptr, ptr, ptr, i64, i64, %union.TValue, ptr, i32, i32 }
%struct.GCtrace = type { %struct.GCRef, i8, i8, i16, i32, i32, %struct.GCRef, ptr, i32, i32, ptr, ptr, %struct.GCRef, %struct.MRef, i32, i32, ptr, i32, i16, i16, i16, i16, i16, i16, i16, i8, i8, i8, i8 }
%struct.MRef = type { i64 }
%struct.IRType1 = type { i8 }
%struct.FoldState = type { %union.IRIns, [2 x %union.IRIns], [2 x %union.IRIns] }
%union.IRIns = type { %struct.GCRef }
%struct.HotPenalty = type { %struct.MRef, i16, i16 }
%struct.BPropEntry = type { i16, i16, i32 }
%struct.ScEvEntry = type { %struct.MRef, i16, i16, i16, i16, %struct.IRType1, i8 }
%union.TValue = type { i64 }
%struct.anon.2 = type { i16, i16, i16, i16 }
%struct.RecordFFData = type { ptr, i64, i32 }

; Function Attrs: alwaysinline nounwind uwtable
define internal void @lj_ir_set_(ptr noundef %0, i16 noundef zeroext %1, i16 noundef zeroext %2, i16 noundef zeroext %3) #1 {
  %5 = alloca ptr, align 8
  %6 = alloca i16, align 2
  %7 = alloca i16, align 2
  %8 = alloca i16, align 2
  store ptr %0, ptr %5, align 8, !tbaa !4
  store i16 %1, ptr %6, align 2, !tbaa !14
  store i16 %2, ptr %7, align 2, !tbaa !14
  store i16 %3, ptr %8, align 2, !tbaa !14
  %9 = load i16, ptr %6, align 2, !tbaa !14
  %10 = load ptr, ptr %5, align 8, !tbaa !4
  %11 = getelementptr inbounds nuw %struct.jit_State, ptr %10, i32 0, i32 14
  %12 = getelementptr inbounds nuw %struct.FoldState, ptr %11, i32 0, i32 0
  %13 = getelementptr inbounds nuw %struct.anon.2, ptr %12, i32 0, i32 2
  store i16 %9, ptr %13, align 4, !tbaa !13
  %14 = load i16, ptr %7, align 2, !tbaa !14
  %15 = load ptr, ptr %5, align 8, !tbaa !4
  %16 = getelementptr inbounds nuw %struct.jit_State, ptr %15, i32 0, i32 14
  %17 = getelementptr inbounds nuw %struct.FoldState, ptr %16, i32 0, i32 0
  %18 = getelementptr inbounds nuw %struct.anon.2, ptr %17, i32 0, i32 0
  store i16 %14, ptr %18, align 8, !tbaa !13
  %19 = load i16, ptr %8, align 2, !tbaa !14
  %20 = load ptr, ptr %5, align 8, !tbaa !4
  %21 = getelementptr inbounds nuw %struct.jit_State, ptr %20, i32 0, i32 14
  %22 = getelementptr inbounds nuw %struct.FoldState, ptr %21, i32 0, i32 0
  %23 = getelementptr inbounds nuw %struct.anon.2, ptr %22, i32 0, i32 1
  store i16 %19, ptr %23, align 2, !tbaa !13
  ret void
}

; Function Attrs: nounwind uwtable
define internal void @recff_bit_unary(ptr noundef %0, ptr noundef %1) #0 {
  %3 = alloca ptr, align 8
  %4 = alloca ptr, align 8
  store ptr %0, ptr %3, align 8, !tbaa !4
  store ptr %1, ptr %4, align 8, !tbaa !46
  %5 = load ptr, ptr %3, align 8, !tbaa !4
  %6 = load ptr, ptr %4, align 8, !tbaa !46
  %7 = call i32 @recff_bit64_unary(ptr noundef %5, ptr noundef %6)
  %8 = icmp ne i32 %7, 0
  br i1 %8, label %9, label %10

9:                                                ; preds = %2
  br label %32

10:                                               ; preds = %2
  %11 = load ptr, ptr %3, align 8, !tbaa !4
  %12 = load ptr, ptr %4, align 8, !tbaa !46
  %13 = getelementptr inbounds nuw %struct.RecordFFData, ptr %12, i32 0, i32 2
  %14 = load i32, ptr %13, align 8, !tbaa !34
  %15 = shl i32 %14, 8
  %16 = or i32 %15, 19
  %17 = trunc i32 %16 to i16
  %18 = load ptr, ptr %3, align 8, !tbaa !4
  %19 = load ptr, ptr %3, align 8, !tbaa !4
  %20 = getelementptr inbounds nuw %struct.jit_State, ptr %19, i32 0, i32 6
  %21 = load ptr, ptr %20, align 8, !tbaa !41
  %22 = getelementptr inbounds i32, ptr %21, i64 0
  %23 = load i32, ptr %22, align 4, !tbaa !9
  %24 = call i32 @lj_opt_narrow_tobit(ptr noundef %18, i32 noundef %23)
  %25 = trunc i32 %24 to i16
  call void @lj_ir_set_(ptr noundef %11, i16 noundef zeroext %17, i16 noundef zeroext %25, i16 noundef zeroext 0)
  %26 = load ptr, ptr %3, align 8, !tbaa !4
  %27 = call i32 @lj_opt_fold(ptr noundef %26)
  %28 = load ptr, ptr %3, align 8, !tbaa !4
  %29 = getelementptr inbounds nuw %struct.jit_State, ptr %28, i32 0, i32 6
  %30 = load ptr, ptr %29, align 8, !tbaa !41
  %31 = getelementptr inbounds i32, ptr %30, i64 0
  store i32 %27, ptr %31, align 4, !tbaa !9
  br label %32

32:                                               ; preds = %10, %9
  ret void
}