; Function Attrs: nounwind uwtable
define internal void @recff_bit_unary(ptr noundef %0, ptr noundef %1) #0 {
  %3 = tail call i32 @recff_bit64_unary(ptr noundef %0, ptr noundef %1) #9
  %.not = icmp eq i32 %3, 0
  br i1 %.not, label %4, label %19

4:                                                ; preds = %2
  %5 = getelementptr inbounds nuw i8, ptr %1, i64 16
  %6 = load i32, ptr %5, align 8, !tbaa !29
  %.tr = trunc i32 %6 to i16
  %7 = shl i16 %.tr, 8
  %8 = or disjoint i16 %7, 19
  %9 = getelementptr inbounds nuw i8, ptr %0, i64 160
  %10 = load ptr, ptr %9, align 8, !tbaa !37
  %11 = load i32, ptr %10, align 4, !tbaa !39
  %12 = tail call i32 @lj_opt_narrow_tobit(ptr noundef %0, i32 noundef %11) #9
  %13 = trunc i32 %12 to i16
  %14 = getelementptr inbounds nuw i8, ptr %0, i64 184
  %15 = getelementptr inbounds nuw i8, ptr %0, i64 188
  store i16 %8, ptr %15, align 4, !tbaa !4
  store i16 %13, ptr %14, align 8, !tbaa !4
  %16 = getelementptr inbounds nuw i8, ptr %0, i64 186
  store i16 0, ptr %16, align 2, !tbaa !4
  %17 = tail call i32 @lj_opt_fold(ptr noundef %0) #9
  %18 = load ptr, ptr %9, align 8, !tbaa !37
  store i32 %17, ptr %18, align 4, !tbaa !39
  br label %19

19:                                               ; preds = %2, %4
  ret void
}